target datalayout = "e-m:e-p270:32:32-p271:32:32-p272:64:64-i64:64-i128:128-f80:128-n8:16:32:64-S128"
target triple = "x86_64-pc-linux-gnu"

; Function Attrs: mustprogress nounwind uwtable
define linkonce_odr dso_local noundef zeroext i1 @_Z7inRangePKfS0_ff(ptr noundef %0, ptr noundef %1, float noundef %2, float noundef %3) #1 comdat {
  %5 = alloca ptr, align 8
  %6 = alloca ptr, align 8
  %7 = alloca float, align 4
  %8 = alloca float, align 4
  %9 = alloca float, align 4
  %10 = alloca float, align 4
  %11 = alloca float, align 4
  store ptr %0, ptr %5, align 8
  store ptr %1, ptr %6, align 8
  store float %2, ptr %7, align 4
  store float %3, ptr %8, align 4
  %12 = load ptr, ptr %6, align 8
  %13 = getelementptr inbounds float, ptr %12, i64 0
  %14 = load float, ptr %13, align 4
  %15 = load ptr, ptr %5, align 8
  %16 = getelementptr inbounds float, ptr %15, i64 0
  %17 = load float, ptr %16, align 4
  %18 = fsub float %14, %17
  store float %18, ptr %9, align 4
  %19 = load ptr, ptr %6, align 8
  %20 = getelementptr inbounds float, ptr %19, i64 1
  %21 = load float, ptr %20, align 4
  %22 = load ptr, ptr %5, align 8
  %23 = getelementptr inbounds float, ptr %22, i64 1
  %24 = load float, ptr %23, align 4
  %25 = fsub float %21, %24
  store float %25, ptr %10, align 4
  %26 = load ptr, ptr %6, align 8
  %27 = getelementptr inbounds float, ptr %26, i64 2
  %28 = load float, ptr %27, align 4
  %29 = load ptr, ptr %5, align 8
  %30 = getelementptr inbounds float, ptr %29, i64 2
  %31 = load float, ptr %30, align 4
  %32 = fsub float %28, %31
  store float %32, ptr %11, align 4
  %33 = load float, ptr %9, align 4
  %34 = load float, ptr %9, align 4
  %35 = load float, ptr %11, align 4
  %36 = load float, ptr %11, align 4
  %37 = fmul float %35, %36
  %38 = call float @llvm.fmuladd.f32(float %33, float %34, float %37)
  %39 = load float, ptr %7, align 4
  %40 = load float, ptr %7, align 4
  %41 = fmul float %39, %40
  %42 = fcmp olt float %38, %41
  br i1 %42, label %43, label %48

43:                                               ; preds = %4
  %44 = load float, ptr %10, align 4
  %45 = call float @llvm.fabs.f32(float %44)
  %46 = load float, ptr %8, align 4
  %47 = fcmp olt float %45, %46
  br label %48

48:                                               ; preds = %43, %4
  %49 = phi i1 [ false, %4 ], [ %47, %43 ]
  ret i1 %49
}

; Function Attrs: mustprogress nounwind uwtable
define linkonce_odr dso_local void @_Z7dtVcopyPfPKf(ptr noundef %0, ptr noundef %1) #1 comdat {
  %3 = alloca ptr, align 8
  %4 = alloca ptr, align 8
  store ptr %0, ptr %3, align 8
  store ptr %1, ptr %4, align 8
  %5 = load ptr, ptr %4, align 8
  %6 = getelementptr inbounds float, ptr %5, i64 0
  %7 = load float, ptr %6, align 4
  %8 = load ptr, ptr %3, align 8
  %9 = getelementptr inbounds float, ptr %8, i64 0
  store float %7, ptr %9, align 4
  %10 = load ptr, ptr %4, align 8
  %11 = getelementptr inbounds float, ptr %10, i64 1
  %12 = load float, ptr %11, align 4
  %13 = load ptr, ptr %3, align 8
  %14 = getelementptr inbounds float, ptr %13, i64 1
  store float %12, ptr %14, align 4
  %15 = load ptr, ptr %4, align 8
  %16 = getelementptr inbounds float, ptr %15, i64 2
  %17 = load float, ptr %16, align 4
  %18 = load ptr, ptr %3, align 8
  %19 = getelementptr inbounds float, ptr %18, i64 2
  store float %17, ptr %19, align 4
  ret void
}

; Function Attrs: mustprogress uwtable
define internal noundef zeroext i1 @_ZL14getSteerTargetP14dtNavMeshQueryPKfS2_fPKjiPfRhRjS5_Pi(ptr noundef %0, ptr noundef %1, ptr noundef %2, float noundef %3, ptr noundef %4, i32 noundef %5, ptr noundef %6, ptr noundef nonnull align 1 dereferenceable(1) %7, ptr noundef nonnull align 4 dereferenceable(4) %8, ptr noundef %9, ptr noundef %10) #0 {
  %12 = alloca i1, align 1
  %13 = alloca ptr, align 8
  %14 = alloca ptr, align 8
  %15 = alloca ptr, align 8
  %16 = alloca float, align 4
  %17 = alloca ptr, align 8
  %18 = alloca i32, align 4
  %19 = alloca ptr, align 8
  %20 = alloca ptr, align 8
  %21 = alloca ptr, align 8
  %22 = alloca ptr, align 8
  %23 = alloca ptr, align 8
  %24 = alloca [9 x float], align 16
  %25 = alloca [3 x i8], align 1
  %26 = alloca [3 x i32], align 4
  %27 = alloca i32, align 4
  %28 = alloca i32, align 4
  %29 = alloca i32, align 4
  store ptr %0, ptr %13, align 8
  store ptr %1, ptr %14, align 8
  store ptr %2, ptr %15, align 8
  store float %3, ptr %16, align 4
  store ptr %4, ptr %17, align 8
  store i32 %5, ptr %18, align 4
  store ptr %6, ptr %19, align 8
  store ptr %7, ptr %20, align 8
  store ptr %8, ptr %21, align 8
  store ptr %9, ptr %22, align 8
  store ptr %10, ptr %23, align 8
  store i32 0, ptr %27, align 4
  %30 = load ptr, ptr %13, align 8
  %31 = load ptr, ptr %14, align 8
  %32 = load ptr, ptr %15, align 8
  %33 = load ptr, ptr %17, align 8
  %34 = load i32, ptr %18, align 4
  %35 = getelementptr inbounds [9 x float], ptr %24, i64 0, i64 0
  %36 = getelementptr inbounds [3 x i8], ptr %25, i64 0, i64 0
  %37 = getelementptr inbounds [3 x i32], ptr %26, i64 0, i64 0
  %38 = call noundef i32 @_ZNK14dtNavMeshQuery16findStraightPathEPKfS1_PKjiPfPhPjPiii(ptr noundef nonnull align 8 dereferenceable(104) %30, ptr noundef %31, ptr noundef %32, ptr noundef %33, i32 noundef %34, ptr noundef %35, ptr noundef %36, ptr noundef %37, ptr noundef %27, i32 noundef 3, i32 noundef 0)
  %39 = load i32, ptr %27, align 4
  %40 = icmp ne i32 %39, 0
  br i1 %40, label %42, label %41

41:                                               ; preds = %11
  store i1 false, ptr %12, align 1
  br label %120

42:                                               ; preds = %11
  %43 = load ptr, ptr %22, align 8
  %44 = icmp ne ptr %43, null
  br i1 %44, label %45, label %69

45:                                               ; preds = %42
  %46 = load ptr, ptr %23, align 8
  %47 = icmp ne ptr %46, null
  br i1 %47, label %48, label %69

48:                                               ; preds = %45
  %49 = load i32, ptr %27, align 4
  %50 = load ptr, ptr %23, align 8
  store i32 %49, ptr %50, align 4
  store i32 0, ptr %28, align 4
  br label %51

51:                                               ; preds = %65, %48
  %52 = load i32, ptr %28, align 4
  %53 = load i32, ptr %27, align 4
  %54 = icmp slt i32 %52, %53
  br i1 %54, label %55, label %68

55:                                               ; preds = %51
  %56 = load ptr, ptr %22, align 8
  %57 = load i32, ptr %28, align 4
  %58 = mul nsw i32 %57, 3
  %59 = sext i32 %58 to i64
  %60 = getelementptr inbounds float, ptr %56, i64 %59
  %61 = load i32, ptr %28, align 4
  %62 = mul nsw i32 %61, 3
  %63 = sext i32 %62 to i64
  %64 = getelementptr inbounds [9 x float], ptr %24, i64 0, i64 %63
  call void @_Z7dtVcopyPfPKf(ptr noundef %60, ptr noundef %64)
  br label %65

65:                                               ; preds = %55
  %66 = load i32, ptr %28, align 4
  %67 = add nsw i32 %66, 1
  store i32 %67, ptr %28, align 4
  br label %51, !llvm.loop !13

68:                                               ; preds = %51
  br label %69

69:                                               ; preds = %68, %45, %42
  store i32 0, ptr %29, align 4
  br label %70

70:                                               ; preds = %91, %69
  %71 = load i32, ptr %29, align 4
  %72 = load i32, ptr %27, align 4
  %73 = icmp slt i32 %71, %72
  br i1 %73, label %74, label %94

74:                                               ; preds = %70
  %75 = load i32, ptr %29, align 4
  %76 = sext i32 %75 to i64
  %77 = getelementptr inbounds [3 x i8], ptr %25, i64 0, i64 %76
  %78 = load i8, ptr %77, align 1
  %79 = zext i8 %78 to i32
  %80 = and i32 %79, 4
  %81 = icmp ne i32 %80, 0
  br i1 %81, label %90, label %82

82:                                               ; preds = %74
  %83 = load i32, ptr %29, align 4
  %84 = mul nsw i32 %83, 3
  %85 = sext i32 %84 to i64
  %86 = getelementptr inbounds [9 x float], ptr %24, i64 0, i64 %85
  %87 = load ptr, ptr %14, align 8
  %88 = load float, ptr %16, align 4
  %89 = call noundef zeroext i1 @_Z7inRangePKfS0_ff(ptr noundef %86, ptr noundef %87, float noundef %88, float noundef 1.000000e+03)
  br i1 %89, label %91, label %90

90:                                               ; preds = %82, %74
  br label %94

91:                                               ; preds = %82
  %92 = load i32, ptr %29, align 4
  %93 = add nsw i32 %92, 1
  store i32 %93, ptr %29, align 4
  br label %70, !llvm.loop !14

94:                                               ; preds = %90, %70
  %95 = load i32, ptr %29, align 4
  %96 = load i32, ptr %27, align 4
  %97 = icmp sge i32 %95, %96
  br i1 %97, label %98, label %99

98:                                               ; preds = %94
  store i1 false, ptr %12, align 1
  br label %120

99:                                               ; preds = %94
  %100 = load ptr, ptr %19, align 8
  %101 = load i32, ptr %29, align 4
  %102 = mul nsw i32 %101, 3
  %103 = sext i32 %102 to i64
  %104 = getelementptr inbounds [9 x float], ptr %24, i64 0, i64 %103
  call void @_Z7dtVcopyPfPKf(ptr noundef %100, ptr noundef %104)
  %105 = load ptr, ptr %14, align 8
  %106 = getelementptr inbounds float, ptr %105, i64 1
  %107 = load float, ptr %106, align 4
  %108 = load ptr, ptr %19, align 8
  %109 = getelementptr inbounds float, ptr %108, i64 1
  store float %107, ptr %109, align 4
  %110 = load i32, ptr %29, align 4
  %111 = sext i32 %110 to i64
  %112 = getelementptr inbounds [3 x i8], ptr %25, i64 0, i64 %111
  %113 = load i8, ptr %112, align 1
  %114 = load ptr, ptr %20, align 8
  store i8 %113, ptr %114, align 1
  %115 = load i32, ptr %29, align 4
  %116 = sext i32 %115 to i64
  %117 = getelementptr inbounds [3 x i32], ptr %26, i64 0, i64 %116
  %118 = load i32, ptr %117, align 4
  %119 = load ptr, ptr %21, align 8
  store i32 %118, ptr %119, align 4
  store i1 true, ptr %12, align 1
  br label %120

120:                                              ; preds = %99, %98, %41
  %121 = load i1, ptr %12, align 1
  ret i1 %121
}