; Function Attrs: mustprogress uwtable
define internal fastcc noundef zeroext i1 @_ZL14getSteerTargetP14dtNavMeshQueryPKfS2_fPKjiPfRhRjS5_Pi(ptr noundef nonnull %0, ptr noundef %1, ptr noundef %2, ptr noundef %3, i32 noundef %4, ptr nocapture noundef writeonly %5, ptr nocapture noundef nonnull writeonly align 1 dereferenceable(1) %6, ptr nocapture noundef nonnull writeonly align 4 dereferenceable(4) %7, ptr noundef writeonly %8, ptr noundef writeonly %9) unnamed_addr #0 {
  %11 = alloca [9 x float], align 16
  %12 = alloca [3 x i8], align 1
  %13 = alloca [3 x i32], align 4
  %14 = alloca i32, align 4
  store i32 0, ptr %14, align 4
  %15 = call noundef i32 @_ZNK14dtNavMeshQuery16findStraightPathEPKfS1_PKjiPfPhPjPiii(ptr noundef nonnull align 8 dereferenceable(104) %0, ptr noundef %1, ptr noundef %2, ptr noundef %3, i32 noundef %4, ptr noundef nonnull %11, ptr noundef nonnull %12, ptr noundef nonnull %13, ptr noundef nonnull %14, i32 noundef 3, i32 noundef 0)
  %16 = load i32, ptr %14, align 4
  %.not = icmp eq i32 %16, 0
  br i1 %.not, label %.loopexit, label %17

17:                                               ; preds = %10
  %18 = icmp ne ptr %8, null
  %19 = icmp ne ptr %9, null
  %or.cond = and i1 %18, %19
  br i1 %or.cond, label %20, label %.loopexit36

20:                                               ; preds = %17
  store i32 %16, ptr %9, align 4
  %21 = icmp sgt i32 %16, 0
  br i1 %21, label %.lr.ph.preheader, label %.loopexit

.lr.ph.preheader:                                 ; preds = %20
  %wide.trip.count = zext nneg i32 %16 to i64
  br label %.lr.ph

.lr.ph:                                           ; preds = %.lr.ph.preheader, %.lr.ph
  %indvars.iv = phi i64 [ 0, %.lr.ph.preheader ], [ %indvars.iv.next, %.lr.ph ]
  %22 = mul nuw nsw i64 %indvars.iv, 3
  %23 = getelementptr inbounds float, ptr %8, i64 %22
  %24 = getelementptr inbounds [9 x float], ptr %11, i64 0, i64 %22
  %25 = load <2 x float>, ptr %24, align 4
  store <2 x float> %25, ptr %23, align 4
  %26 = getelementptr inbounds i8, ptr %24, i64 8
  %27 = load float, ptr %26, align 4
  %28 = getelementptr inbounds i8, ptr %23, i64 8
  store float %27, ptr %28, align 4
  %indvars.iv.next = add nuw nsw i64 %indvars.iv, 1
  %exitcond.not = icmp eq i64 %indvars.iv.next, %wide.trip.count
  br i1 %exitcond.not, label %.loopexit36, label %.lr.ph, !llvm.loop !14

.loopexit36:                                      ; preds = %.lr.ph, %17
  %29 = icmp sgt i32 %16, 0
  br i1 %29, label %.lr.ph40, label %.loopexit

.lr.ph40:                                         ; preds = %.loopexit36
  %30 = getelementptr inbounds i8, ptr %1, i64 8
  %31 = getelementptr inbounds i8, ptr %1, i64 4
  %wide.trip.count46 = zext nneg i32 %16 to i64
  br label %32

32:                                               ; preds = %.lr.ph40, %55
  %indvars.iv43 = phi i64 [ 0, %.lr.ph40 ], [ %indvars.iv.next44, %55 ]
  %33 = getelementptr inbounds [3 x i8], ptr %12, i64 0, i64 %indvars.iv43
  %34 = load i8, ptr %33, align 1
  %35 = and i8 %34, 4
  %.not34 = icmp eq i8 %35, 0
  br i1 %.not34, label %36, label %_Z7inRangePKfS0_ff.exit.thread

36:                                               ; preds = %32
  %37 = mul nuw nsw i64 %indvars.iv43, 3
  %38 = getelementptr inbounds [9 x float], ptr %11, i64 0, i64 %37
  %39 = load float, ptr %1, align 4
  %40 = load float, ptr %38, align 4
  %41 = fsub float %39, %40
  %42 = load float, ptr %30, align 4
  %43 = getelementptr inbounds i8, ptr %38, i64 8
  %44 = load float, ptr %43, align 4
  %45 = fsub float %42, %44
  %46 = fmul float %45, %45
  %47 = call float @llvm.fmuladd.f32(float %41, float %41, float %46)
  %48 = fcmp olt float %47, 0x3F1A36E2E0000000
  br i1 %48, label %_Z7inRangePKfS0_ff.exit, label %_Z7inRangePKfS0_ff.exit.thread

_Z7inRangePKfS0_ff.exit:                          ; preds = %36
  %49 = load float, ptr %31, align 4
  %50 = getelementptr inbounds i8, ptr %38, i64 4
  %51 = load float, ptr %50, align 4
  %52 = fsub float %49, %51
  %53 = call float @llvm.fabs.f32(float %52)
  %54 = fcmp olt float %53, 1.000000e+03
  br i1 %54, label %55, label %_Z7inRangePKfS0_ff.exit.thread

55:                                               ; preds = %_Z7inRangePKfS0_ff.exit
  %indvars.iv.next44 = add nuw nsw i64 %indvars.iv43, 1
  %exitcond47.not = icmp eq i64 %indvars.iv.next44, %wide.trip.count46
  br i1 %exitcond47.not, label %.loopexit, label %32, !llvm.loop !5

_Z7inRangePKfS0_ff.exit.thread:                   ; preds = %36, %32, %_Z7inRangePKfS0_ff.exit
  %56 = mul i64 %indvars.iv43, 3
  %57 = and i64 %56, 4294967295
  %58 = getelementptr inbounds [9 x float], ptr %11, i64 0, i64 %57
  %59 = getelementptr inbounds i8, ptr %5, i64 4
  %60 = load <2 x float>, ptr %58, align 4
  store <2 x float> %60, ptr %5, align 4
  %61 = getelementptr inbounds i8, ptr %58, i64 8
  %62 = load float, ptr %61, align 4
  %63 = getelementptr inbounds i8, ptr %5, i64 8
  store float %62, ptr %63, align 4
  %64 = load float, ptr %31, align 4
  store float %64, ptr %59, align 4
  %65 = and i64 %indvars.iv43, 4294967295
  %66 = getelementptr inbounds [3 x i8], ptr %12, i64 0, i64 %65
  %67 = load i8, ptr %66, align 1
  store i8 %67, ptr %6, align 1
  %68 = getelementptr inbounds [3 x i32], ptr %13, i64 0, i64 %65
  %69 = load i32, ptr %68, align 4
  store i32 %69, ptr %7, align 4
  br label %.loopexit

.loopexit:                                        ; preds = %55, %20, %.loopexit36, %10, %_Z7inRangePKfS0_ff.exit.thread
  %.030 = phi i1 [ true, %_Z7inRangePKfS0_ff.exit.thread ], [ false, %10 ], [ false, %.loopexit36 ], [ false, %20 ], [ false, %55 ]
  ret i1 %.030
}